	.file	"arrsize.cil.c"
	.text
.Ltext0:
	.comm	g1,1073741824,32
	.comm	g2,1073741824,32
	.comm	g3,1073741824,32
	.globl	os_rcv_fd
	.type	os_rcv_fd, @function
os_rcv_fd:
.LFB0:
	.file 1 "./arrsize.cil.c"
	.loc 1 27 0
	.cfi_startproc
	pushq	%rbp
	.cfi_def_cfa_offset 16
	.cfi_offset 6, -16
	movq	%rsp, %rbp
	.cfi_def_cfa_register 6
	subq	$16, %rsp
	.loc 1 27 0
	movq	%fs:40, %rax
	movq	%rax, -8(%rbp)
	xorl	%eax, %eax
	.loc 1 32 0
	movb	$0, -16(%rbp)
	.loc 1 34 0
	nop
	.loc 1 36 0
	movq	-8(%rbp), %rax
	xorq	%fs:40, %rax
	je	.L3
	call	__stack_chk_fail
.L3:
	leave
	.cfi_def_cfa 7, 8
	ret
	.cfi_endproc
.LFE0:
	.size	os_rcv_fd, .-os_rcv_fd
	.section	.rodata
.LC1:
	.string	"Error %d\n"
	.text
	.globl	main
	.type	main, @function
main:
.LFB1:
	.loc 1 39 0
	.cfi_startproc
	pushq	%rbp
	.cfi_def_cfa_offset 16
	.cfi_offset 6, -16
	movq	%rsp, %rbp
	.cfi_def_cfa_register 6
	subq	$32, %rsp
	.loc 1 46 0
	movq	$g1, -24(%rbp)
	.loc 1 48 0
	movq	$g2, -16(%rbp)
	.loc 1 50 0
	movq	$g3, -8(%rbp)
	.loc 1 52 0
	movl	$g1+1073741820, %eax
	movl	$1, (%rax)
	.loc 1 54 0
	movl	$g2+1073741823, %eax
	movb	$2, (%rax)
	.loc 1 56 0
	movl	$g3+1073741816, %eax
	movsd	.LC0(%rip), %xmm0
	movsd	%xmm0, (%rax)
	.loc 1 58 0
	movabsq	$288230375077969920, %rdx
	movq	-24(%rbp), %rax
	addq	%rdx, %rax
	movl	(%rax), %eax
	cmpl	$1, %eax
	je	.L5
	.loc 1 60 0
	movl	$1, %esi
	movl	$.LC1, %edi
	movl	$0, %eax
	call	printf
	.loc 1 62 0
	movl	$1, %edi
	call	exit
.L5:
	.loc 1 65 0
	movabsq	$1152921503533105152, %rdx
	movq	-16(%rbp), %rax
	addq	%rdx, %rax
	movzbl	(%rax), %eax
	cmpb	$2, %al
	je	.L6
	.loc 1 67 0
	movl	$2, %esi
	movl	$.LC1, %edi
	movl	$0, %eax
	call	printf
	.loc 1 69 0
	movl	$2, %edi
	call	exit
.L6:
	.loc 1 72 0
	movabsq	$144115187002114048, %rdx
	movq	-8(%rbp), %rax
	addq	%rdx, %rax
	movsd	(%rax), %xmm0
	ucomisd	.LC0(%rip), %xmm0
	jp	.L10
	ucomisd	.LC0(%rip), %xmm0
	je	.L11
.L10:
	.loc 1 74 0
	movl	$3, %esi
	movl	$.LC1, %edi
	movl	$0, %eax
	call	printf
	.loc 1 76 0
	movl	$3, %edi
	call	exit
.L11:
	.loc 1 79 0
	movl	$0, %eax
	.loc 1 81 0
	leave
	.cfi_def_cfa 7, 8
	ret
	.cfi_endproc
.LFE1:
	.size	main, .-main
	.section	.rodata
	.align 8
.LC0:
	.long	0
	.long	1074266112
	.text
.Letext0:
	.section	.note.GNU-stack,"",@progbits
