	.file	"asm3.cil.c"
	.text
.Ltext0:
	.globl	floor
	.type	floor, @function
floor:
.LFB0:
	.file 1 "./asm3.cil.c"
	.loc 1 6 0
	.cfi_startproc
	pushq	%rbp
	.cfi_def_cfa_offset 16
	.cfi_offset 6, -16
	movq	%rsp, %rbp
	.cfi_def_cfa_register 6
	subq	$32, %rsp
	movsd	%xmm0, -24(%rbp)
	.loc 1 6 0
	movq	%fs:40, %rax
	movq	%rax, -8(%rbp)
	xorl	%eax, %eax
	.loc 1 13 0
#APP
# 13 "./asm3.cil.c" 1
	fnstcw -12(%rbp)
# 0 "" 2
	.loc 1 15 0
#NO_APP
	movzwl	-12(%rbp), %eax
	andb	$243, %ah
	orb	$4, %ah
	movw	%ax, -10(%rbp)
	.loc 1 17 0
#APP
# 17 "./asm3.cil.c" 1
	fldcw -10(%rbp)
# 0 "" 2
	.loc 1 19 0
#NO_APP
	fldl	-24(%rbp)
#APP
# 19 "./asm3.cil.c" 1
	frndint
# 0 "" 2
	.loc 1 21 0
# 21 "./asm3.cil.c" 1
	fldcw -12(%rbp)
# 0 "" 2
	.loc 1 23 0
#NO_APP
	fstpl	-32(%rbp)
	movsd	-32(%rbp), %xmm0
	.loc 1 25 0
	movq	-8(%rbp), %rax
	xorq	%fs:40, %rax
	je	.L3
	call	__stack_chk_fail
.L3:
	leave
	.cfi_def_cfa 7, 8
	ret
	.cfi_endproc
.LFE0:
	.size	floor, .-floor
	.globl	floorf
	.type	floorf, @function
floorf:
.LFB1:
	.loc 1 28 0
	.cfi_startproc
	pushq	%rbp
	.cfi_def_cfa_offset 16
	.cfi_offset 6, -16
	movq	%rsp, %rbp
	.cfi_def_cfa_register 6
	subq	$32, %rsp
	movss	%xmm0, -20(%rbp)
	.loc 1 28 0
	movq	%fs:40, %rax
	movq	%rax, -8(%rbp)
	xorl	%eax, %eax
	.loc 1 35 0
#APP
# 35 "./asm3.cil.c" 1
	fnstcw -12(%rbp)
# 0 "" 2
	.loc 1 37 0
#NO_APP
	movzwl	-12(%rbp), %eax
	andb	$243, %ah
	orb	$4, %ah
	movw	%ax, -10(%rbp)
	.loc 1 39 0
#APP
# 39 "./asm3.cil.c" 1
	fldcw -10(%rbp)
# 0 "" 2
	.loc 1 41 0
#NO_APP
	flds	-20(%rbp)
#APP
# 41 "./asm3.cil.c" 1
	frndint
# 0 "" 2
	.loc 1 43 0
# 43 "./asm3.cil.c" 1
	fldcw -12(%rbp)
# 0 "" 2
	.loc 1 45 0
#NO_APP
	fstps	-24(%rbp)
	movss	-24(%rbp), %xmm0
	.loc 1 47 0
	movq	-8(%rbp), %rax
	xorq	%fs:40, %rax
	je	.L6
	call	__stack_chk_fail
.L6:
	leave
	.cfi_def_cfa 7, 8
	ret
	.cfi_endproc
.LFE1:
	.size	floorf, .-floorf
	.globl	floorl
	.type	floorl, @function
floorl:
.LFB2:
	.loc 1 50 0
	.cfi_startproc
	pushq	%rbp
	.cfi_def_cfa_offset 16
	.cfi_offset 6, -16
	movq	%rsp, %rbp
	.cfi_def_cfa_register 6
	subq	$16, %rsp
	.loc 1 50 0
	movq	%fs:40, %rax
	movq	%rax, -8(%rbp)
	xorl	%eax, %eax
	.loc 1 57 0
#APP
# 57 "./asm3.cil.c" 1
	fnstcw -12(%rbp)
# 0 "" 2
	.loc 1 59 0
#NO_APP
	movzwl	-12(%rbp), %eax
	andb	$243, %ah
	orb	$4, %ah
	movw	%ax, -10(%rbp)
	.loc 1 61 0
#APP
# 61 "./asm3.cil.c" 1
	fldcw -10(%rbp)
# 0 "" 2
	.loc 1 63 0
#NO_APP
	fldt	16(%rbp)
#APP
# 63 "./asm3.cil.c" 1
	frndint
# 0 "" 2
	.loc 1 65 0
# 65 "./asm3.cil.c" 1
	fldcw -12(%rbp)
# 0 "" 2
	.loc 1 69 0
#NO_APP
	movq	-8(%rbp), %rax
	xorq	%fs:40, %rax
	je	.L9
	fstp	%st(0)
	call	__stack_chk_fail
.L9:
	leave
	.cfi_def_cfa 7, 8
	ret
	.cfi_endproc
.LFE2:
	.size	floorl, .-floorl
.Letext0:
	.section	.note.GNU-stack,"",@progbits
