	.file	"init.cil.c"
	.text
.Ltext0:
	.data
	.type	usageescape, @object
	.size	usageescape, 1
usageescape:
	.byte	67
	.globl	usagep
	.section	.rodata
.LC0:
	.string	"Usage non-local"
	.data
	.align 8
	.type	usagep, @object
	.size	usagep, 8
usagep:
	.quad	.LC0
	.globl	usagep1
	.section	.rodata
.LC1:
	.string	"Usage in a brace"
	.data
	.align 8
	.type	usagep1, @object
	.size	usagep1, 8
usagep1:
	.quad	.LC1
	.globl	g
	.align 4
	.type	g, @object
	.size	g, 4
g:
	.long	6
	.globl	usages
	.align 8
	.type	usages, @object
	.size	usages, 13
usages:
	.byte	85
	.byte	115
	.byte	97
	.byte	103
	.byte	101
	.byte	32
	.byte	115
	.byte	116
	.byte	114
	.byte	105
	.byte	110
	.byte	103
	.byte	0
	.globl	strange
	.align 8
	.type	strange, @object
	.size	strange, 8
strange:
	.byte	115
	.byte	101
	.byte	118
	.byte	101
	.byte	114
	.byte	97
	.byte	108
	.byte	0
	.globl	null
	.bss
	.align 8
	.type	null, @object
	.size	null, 8
null:
	.zero	8
	.globl	fptr
	.data
	.align 8
	.type	fptr, @object
	.size	fptr, 8
fptr:
	.quad	afunc
	.globl	a
	.section	.rodata
.LC2:
	.string	"first"
.LC3:
	.string	"second"
	.data
	.align 32
	.type	a, @object
	.size	a, 80
a:
	.quad	.LC2
	.long	0
	.zero	4
	.quad	.LC3
	.long	1
	.zero	4
	.quad	usages+2
	.long	2
	.zero	4
	.quad	usageescape
	.long	3
	.zero	4
	.quad	usages
	.long	4
	.zero	4
	.comm	glob1,152,32
	.comm	glob3,4,4
	.globl	glob2
	.align 8
	.type	glob2, @object
	.size	glob2, 8
glob2:
	.quad	glob3
	.text
	.globl	afunc
	.type	afunc, @function
afunc:
.LFB0:
	.file 1 "./init.cil.c"
	.loc 1 89 0
	.cfi_startproc
	pushq	%rbp
	.cfi_def_cfa_offset 16
	.cfi_offset 6, -16
	movq	%rsp, %rbp
	.cfi_def_cfa_register 6
	subq	$240, %rsp
	movl	%edi, -228(%rbp)
	.loc 1 89 0
	movq	%fs:40, %rax
	movq	%rax, -8(%rbp)
	xorl	%eax, %eax
	.loc 1 96 0
	movq	glob1+80(%rip), %rax
	movq	%rax, -144(%rbp)
	.loc 1 98 0
	movq	-88(%rbp), %rax
	movl	(%rax), %eax
	movzbl	-48(%rbp), %edx
	movsbl	%dl, %ecx
	movzbl	-64(%rbp), %edx
	movsbl	%dl, %edx
	subl	%edx, %ecx
	movl	%ecx, %edx
	addl	%edx, %eax
	.loc 1 100 0
	movq	-8(%rbp), %rsi
	xorq	%fs:40, %rsi
	je	.L3
	call	__stack_chk_fail
.L3:
	leave
	.cfi_def_cfa 7, 8
	ret
	.cfi_endproc
.LFE0:
	.size	afunc, .-afunc
	.globl	uarray
	.data
	.align 32
	.type	uarray, @object
	.size	uarray, 48
uarray:
	.long	1
	.zero	4
	.quad	0
	.long	2
	.zero	4
	.quad	0
	.long	3
	.zero	4
	.quad	0
	.globl	z
	.align 32
	.type	z, @object
	.size	z, 48
z:
	.long	1
	.zero	8
	.long	2
	.zero	8
	.long	3
	.zero	8
	.long	4
	.zero	8
	.globl	w
	.align 32
	.type	w, @object
	.size	w, 32
w:
	.long	1
	.zero	8
	.long	0
	.long	2
	.zero	8
	.long	0
	.globl	q
	.align 32
	.type	q, @object
	.size	q, 48
q:
	.value	1
	.zero	2
	.zero	8
	.value	2
	.value	3
	.zero	8
	.value	4
	.value	5
	.value	6
	.zero	2
	.zero	4
	.zero	12
	.globl	q1
	.align 32
	.type	q1, @object
	.size	q1, 48
q1:
	.value	1
	.value	0
	.value	0
	.value	0
	.value	0
	.value	0
	.value	2
	.value	3
	.value	0
	.value	0
	.value	0
	.value	0
	.value	4
	.value	5
	.value	6
	.value	0
	.value	0
	.value	0
	.zero	12
	.globl	a1
	.align 32
	.type	a1, @object
	.size	a1, 40
a1:
	.long	1
	.long	3
	.long	5
	.long	7
	.long	9
	.long	0
	.long	8
	.long	6
	.long	4
	.long	2
	.globl	nm
	.section	.rodata
.LC4:
	.string	"member_two"
.LC5:
	.string	"member_three"
	.data
	.align 16
	.type	nm, @object
	.size	nm, 24
nm:
	.quad	0
	.quad	.LC4
	.quad	.LC5
	.section	.rodata
.LC6:
	.string	"init with parens"
.LC7:
	.string	"Incorrect init: %d\n"
.LC8:
	.string	"Initialization test succeeded"
	.text
	.globl	main
	.type	main, @function
main:
.LFB1:
	.loc 1 138 0
	.cfi_startproc
	pushq	%rbp
	.cfi_def_cfa_offset 16
	.cfi_offset 6, -16
	movq	%rsp, %rbp
	.cfi_def_cfa_register 6
	subq	$80, %rsp
	.loc 1 138 0
	movq	%fs:40, %rax
	movq	%rax, -8(%rbp)
	xorl	%eax, %eax
	.loc 1 150 0
	movl	$.LC6, %eax
	movb	%al, -65(%rbp)
	.loc 1 152 0
	movq	w(%rip), %rax
	movq	%rax, -32(%rbp)
	movq	w+8(%rip), %rax
	movq	%rax, -24(%rbp)
	.loc 1 154 0
	movq	a(%rip), %rax
	movl	$.LC2, %esi
	movq	%rax, %rdi
	call	strcmp
	movl	%eax, -60(%rbp)
	.loc 1 156 0
	cmpl	$0, -60(%rbp)
	je	.L5
	.loc 1 158 0
	movl	$0, %esi
	movl	$.LC7, %edi
	movl	$0, %eax
	call	printf
	.loc 1 160 0
	movl	$1, %edi
	call	exit
.L5:
	.loc 1 170 0
	movl	uarray+32(%rip), %eax
	cmpl	$3, %eax
	je	.L6
	.loc 1 172 0
	movl	$2, %esi
	movl	$.LC7, %edi
	movl	$0, %eax
	call	printf
	.loc 1 174 0
	movl	$1, %edi
	call	exit
.L6:
	.loc 1 177 0
	movl	z+24(%rip), %eax
	cmpl	$3, %eax
	je	.L7
	.loc 1 179 0
	movl	$4, %esi
	movl	$.LC7, %edi
	movl	$0, %eax
	call	printf
	.loc 1 181 0
	movl	$1, %edi
	call	exit
.L7:
	.loc 1 184 0
	movl	z+28(%rip), %eax
	testl	%eax, %eax
	je	.L8
	.loc 1 186 0
	movl	$4, %esi
	movl	$.LC7, %edi
	movl	$0, %eax
	call	printf
	.loc 1 188 0
	movl	$1, %edi
	call	exit
.L8:
	.loc 1 198 0
	movl	w+16(%rip), %eax
	cmpl	$2, %eax
	je	.L9
	.loc 1 200 0
	movl	$5, %esi
	movl	$.LC7, %edi
	movl	$0, %eax
	call	printf
	.loc 1 202 0
	movl	$1, %edi
	call	exit
.L9:
	.loc 1 205 0
	movq	$q, -48(%rbp)
	.loc 1 207 0
	movq	$q1, -40(%rbp)
	.loc 1 209 0
	movl	$0, -64(%rbp)
	.loc 1 211 0
	jmp	.L10
.L12:
	.loc 1 213 0
	movq	-48(%rbp), %rax
	movzwl	(%rax), %edx
	movq	-40(%rbp), %rax
	movzwl	(%rax), %eax
	cmpw	%ax, %dx
	je	.L11
	.loc 1 215 0
	movl	$6, %esi
	movl	$.LC7, %edi
	movl	$0, %eax
	call	printf
	.loc 1 217 0
	movl	$1, %edi
	call	exit
.L11:
	.loc 1 220 0
	addl	$1, -64(%rbp)
	.loc 1 222 0
	addq	$2, -48(%rbp)
	.loc 1 224 0
	addq	$2, -40(%rbp)
.L10:
	.loc 1 211 0
	movl	-64(%rbp), %eax
	cmpl	$23, %eax
	jbe	.L12
	.loc 1 227 0
	movl	a1+4(%rip), %eax
	cmpl	$3, %eax
	je	.L13
	.loc 1 229 0
	movl	$7, %esi
	movl	$.LC7, %edi
	movl	$0, %eax
	call	printf
	.loc 1 231 0
	movl	$1, %edi
	call	exit
.L13:
	.loc 1 234 0
	movl	a1+20(%rip), %eax
	testl	%eax, %eax
	je	.L14
	.loc 1 236 0
	movl	$7, %esi
	movl	$.LC7, %edi
	movl	$0, %eax
	call	printf
	.loc 1 238 0
	movl	$1, %edi
	call	exit
.L14:
	.loc 1 241 0
	movl	a1+24(%rip), %eax
	cmpl	$8, %eax
	je	.L15
	.loc 1 243 0
	movl	$7, %esi
	movl	$.LC7, %edi
	movl	$0, %eax
	call	printf
	.loc 1 245 0
	movl	$1, %edi
	call	exit
.L15:
	.loc 1 248 0
	movl	a1+28(%rip), %eax
	cmpl	$6, %eax
	je	.L16
	.loc 1 250 0
	movl	$7, %esi
	movl	$.LC7, %edi
	movl	$0, %eax
	call	printf
	.loc 1 252 0
	movl	$1, %edi
	call	exit
.L16:
	.loc 1 255 0
	movq	nm+8(%rip), %rax
	movl	$.LC4, %esi
	movq	%rax, %rdi
	call	strcmp
	movl	%eax, -56(%rbp)
	.loc 1 257 0
	cmpl	$0, -56(%rbp)
	je	.L17
	.loc 1 259 0
	movl	$8, %esi
	movl	$.LC7, %edi
	movl	$0, %eax
	call	printf
	.loc 1 261 0
	movl	$1, %edi
	call	exit
.L17:
	.loc 1 264 0
	movq	nm+16(%rip), %rax
	movl	$.LC5, %esi
	movq	%rax, %rdi
	call	strcmp
	movl	%eax, -52(%rbp)
	.loc 1 266 0
	cmpl	$0, -52(%rbp)
	je	.L18
	.loc 1 268 0
	movl	$8, %esi
	movl	$.LC7, %edi
	movl	$0, %eax
	call	printf
	.loc 1 270 0
	movl	$1, %edi
	call	exit
.L18:
	.loc 1 281 0
	movl	$.LC8, %edi
	call	puts
	.loc 1 283 0
	movl	$0, %eax
	.loc 1 285 0
	movq	-8(%rbp), %rcx
	xorq	%fs:40, %rcx
	je	.L20
	call	__stack_chk_fail
.L20:
	leave
	.cfi_def_cfa 7, 8
	ret
	.cfi_endproc
.LFE1:
	.size	main, .-main
.Letext0:
	.section	.note.GNU-stack,"",@progbits
