	.file	"static.cil.c"
	.text
.Ltext0:
	.data
	.align 4
	.type	counter___0, @object
	.size	counter___0, 4
counter___0:
	.long	18
	.text
	.globl	counter
	.type	counter, @function
counter:
.LFB0:
	.file 1 "./static.cil.c"
	.loc 1 14 0
	.cfi_startproc
	pushq	%rbp
	.cfi_def_cfa_offset 16
	.cfi_offset 6, -16
	movq	%rsp, %rbp
	.cfi_def_cfa_register 6
	.loc 1 19 0
	movl	counter___0(%rip), %eax
	addl	$1, %eax
	movl	%eax, counter___0(%rip)
	.loc 1 21 0
	movl	counter___0(%rip), %eax
	.loc 1 23 0
	popq	%rbp
	.cfi_def_cfa 7, 8
	ret
	.cfi_endproc
.LFE0:
	.size	counter, .-counter
	.globl	s1
	.data
	.align 4
	.type	s1, @object
	.size	s1, 4
s1:
	.long	17
	.align 4
	.type	s1___0, @object
	.size	s1___0, 4
s1___0:
	.long	5
	.local	s2___0
	.comm	s2___0,4,4
	.align 4
	.type	counter___1, @object
	.size	counter___1, 4
counter___1:
	.long	29
	.text
	.globl	sets1
	.type	sets1, @function
sets1:
.LFB1:
	.loc 1 38 0
	.cfi_startproc
	pushq	%rbp
	.cfi_def_cfa_offset 16
	.cfi_offset 6, -16
	movq	%rsp, %rbp
	.cfi_def_cfa_register 6
	.loc 1 43 0
	movl	s2___0(%rip), %eax
	addl	$1, %eax
	movl	%eax, s2___0(%rip)
	.loc 1 45 0
	movl	s1___0(%rip), %edx
	movl	counter___1(%rip), %eax
	addl	%edx, %eax
	.loc 1 47 0
	popq	%rbp
	.cfi_def_cfa 7, 8
	ret
	.cfi_endproc
.LFE1:
	.size	sets1, .-sets1
	.local	s2
	.comm	s2,4,4
	.section	.rodata
.LC0:
	.string	"Error %d\n"
.LC1:
	.string	"Success"
	.text
	.globl	main
	.type	main, @function
main:
.LFB2:
	.loc 1 52 0
	.cfi_startproc
	pushq	%rbp
	.cfi_def_cfa_offset 16
	.cfi_offset 6, -16
	movq	%rsp, %rbp
	.cfi_def_cfa_register 6
	subq	$16, %rsp
	.loc 1 59 0
	movl	$28, s2(%rip)
	.loc 1 61 0
	call	counter
	movl	%eax, -12(%rbp)
	.loc 1 63 0
	cmpl	$19, -12(%rbp)
	je	.L6
	.loc 1 65 0
	movl	$1, %esi
	movl	$.LC0, %edi
	movl	$0, %eax
	call	printf
	.loc 1 67 0
	movl	$1, %edi
	call	exit
.L6:
	.loc 1 70 0
	call	counter
	movl	%eax, -8(%rbp)
	.loc 1 72 0
	cmpl	$20, -8(%rbp)
	je	.L7
	.loc 1 74 0
	movl	$2, %esi
	movl	$.LC0, %edi
	movl	$0, %eax
	call	printf
	.loc 1 76 0
	movl	$2, %edi
	call	exit
.L7:
	.loc 1 79 0
	call	sets1
	movl	%eax, -4(%rbp)
	.loc 1 81 0
	cmpl	$34, -4(%rbp)
	je	.L8
	.loc 1 83 0
	movl	$3, %esi
	movl	$.LC0, %edi
	movl	$0, %eax
	call	printf
	.loc 1 85 0
	movl	$3, %edi
	call	exit
.L8:
	.loc 1 88 0
	movl	s1(%rip), %eax
	cmpl	$17, %eax
	je	.L9
	.loc 1 90 0
	movl	$4, %esi
	movl	$.LC0, %edi
	movl	$0, %eax
	call	printf
	.loc 1 92 0
	movl	$4, %edi
	call	exit
.L9:
	.loc 1 95 0
	movl	s2(%rip), %eax
	cmpl	$28, %eax
	je	.L10
	.loc 1 97 0
	movl	$5, %esi
	movl	$.LC0, %edi
	movl	$0, %eax
	call	printf
	.loc 1 99 0
	movl	$5, %edi
	call	exit
.L10:
	.loc 1 102 0
	movl	$.LC1, %edi
	call	puts
	.loc 1 104 0
	movl	$0, %edi
	call	exit
	.cfi_endproc
.LFE2:
	.size	main, .-main
.Letext0:
	.section	.note.GNU-stack,"",@progbits
