	.file	"tempname.cil.c"
	.text
.Ltext0:
	.globl	foo
	.type	foo, @function
foo:
.LFB0:
	.file 1 "./tempname.cil.c"
	.loc 1 6 0
	.cfi_startproc
	pushq	%rbp
	.cfi_def_cfa_offset 16
	.cfi_offset 6, -16
	movq	%rsp, %rbp
	.cfi_def_cfa_register 6
	.loc 1 11 0
	movl	$0, %eax
	.loc 1 13 0
	popq	%rbp
	.cfi_def_cfa 7, 8
	ret
	.cfi_endproc
.LFE0:
	.size	foo, .-foo
	.globl	main
	.type	main, @function
main:
.LFB1:
	.loc 1 16 0
	.cfi_startproc
	pushq	%rbp
	.cfi_def_cfa_offset 16
	.cfi_offset 6, -16
	movq	%rsp, %rbp
	.cfi_def_cfa_register 6
	subq	$64, %rsp
	.loc 1 29 0
	movq	$0, -40(%rbp)
	.loc 1 31 0
	call	foo
	movq	%rax, -32(%rbp)
	.loc 1 33 0
	call	foo
	movq	%rax, -24(%rbp)
	.loc 1 35 0
	call	foo
	movq	%rax, -16(%rbp)
	.loc 1 38 0
	movq	-16(%rbp), %rax
	movq	(%rax), %rax
	movq	%rax, -8(%rbp)
	.loc 1 40 0
	movq	-8(%rbp), %rax
	movl	(%rax), %eax
	movl	%eax, -56(%rbp)
	.loc 1 42 0
	movq	-24(%rbp), %rax
	movl	%eax, -52(%rbp)
	.loc 1 44 0
	movq	-32(%rbp), %rax
	movl	%eax, -48(%rbp)
	.loc 1 46 0
	movl	-48(%rbp), %edx
	movl	-52(%rbp), %eax
	addl	%edx, %eax
	movl	%eax, -44(%rbp)
	.loc 1 48 0
	movl	-44(%rbp), %edx
	movl	-56(%rbp), %eax
	addl	%edx, %eax
	.loc 1 51 0
	leave
	.cfi_def_cfa 7, 8
	ret
	.cfi_endproc
.LFE1:
	.size	main, .-main
.Letext0:
	.section	.note.GNU-stack,"",@progbits
